	.file	"c_runtime.c"
	.text
	.globl	create_arena
	.type	create_arena, @function
create_arena:
.LFB5:
	.cfi_startproc
	pushq	%rbp
	.cfi_def_cfa_offset 16
	.cfi_offset 6, -16
	movq	%rsp, %rbp
	.cfi_def_cfa_register 6
	subq	$32, %rsp
	movl	%edi, -20(%rbp)
	movl	$16, %edi
	call	malloc@PLT
	movq	%rax, -8(%rbp)
	movq	-8(%rbp), %rax
	movl	-20(%rbp), %edx
	movl	%edx, (%rax)
	movq	-8(%rbp), %rax
	movl	$0, 4(%rax)
	movl	-20(%rbp), %eax
	cltq
	salq	$3, %rax
	movq	%rax, %rdi
	call	malloc@PLT
	movq	%rax, %rdx
	movq	-8(%rbp), %rax
	movq	%rdx, 8(%rax)
	movq	-8(%rbp), %rax
	leave
	.cfi_def_cfa 7, 8
	ret
	.cfi_endproc
.LFE5:
	.size	create_arena, .-create_arena
	.globl	arena_free
	.type	arena_free, @function
arena_free:
.LFB6:
	.cfi_startproc
	pushq	%rbp
	.cfi_def_cfa_offset 16
	.cfi_offset 6, -16
	movq	%rsp, %rbp
	.cfi_def_cfa_register 6
	subq	$16, %rsp
	movq	%rdi, -8(%rbp)
	movq	-8(%rbp), %rax
	movq	8(%rax), %rax
	movq	%rax, %rdi
	call	free@PLT
	movq	-8(%rbp), %rax
	movq	%rax, %rdi
	call	free@PLT
	nop
	leave
	.cfi_def_cfa 7, 8
	ret
	.cfi_endproc
.LFE6:
	.size	arena_free, .-arena_free
	.section	.rodata
.LC0:
	.string	"heap space exhausted(\n"
	.text
	.globl	alloc
	.type	alloc, @function
alloc:
.LFB7:
	.cfi_startproc
	pushq	%rbp
	.cfi_def_cfa_offset 16
	.cfi_offset 6, -16
	movq	%rsp, %rbp
	.cfi_def_cfa_register 6
	subq	$32, %rsp
	movq	%rdi, -24(%rbp)
	movq	%rsi, -32(%rbp)
	movq	-24(%rbp), %rax
	movl	(%rax), %eax
	movslq	%eax, %rdx
	movq	-24(%rbp), %rax
	movl	4(%rax), %eax
	movslq	%eax, %rcx
	movq	-32(%rbp), %rax
	addq	%rcx, %rax
	cmpq	%rax, %rdx
	jge	.L5
	movq	stderr(%rip), %rax
	movq	%rax, %rcx
	movl	$22, %edx
	movl	$1, %esi
	leaq	.LC0(%rip), %rdi
	call	fwrite@PLT
	movl	$1, %edi
	call	exit@PLT
.L5:
	movq	-24(%rbp), %rax
	movq	8(%rax), %rdx
	movq	-24(%rbp), %rax
	movl	4(%rax), %eax
	cltq
	salq	$3, %rax
	addq	%rdx, %rax
	movq	%rax, -8(%rbp)
	movq	-24(%rbp), %rax
	movl	4(%rax), %eax
	movl	%eax, %edx
	movq	-32(%rbp), %rax
	addl	%edx, %eax
	movl	%eax, %edx
	movq	-24(%rbp), %rax
	movl	%edx, 4(%rax)
	movq	-8(%rbp), %rax
	leave
	.cfi_def_cfa 7, 8
	ret
	.cfi_endproc
.LFE7:
	.size	alloc, .-alloc
	.section	.rodata
.LC1:
	.string	"> "
.LC2:
	.string	"%ld"
.LC3:
	.string	"stdin died :(\n"
	.text
	.globl	read
	.type	read, @function
read:
.LFB8:
	.cfi_startproc
	pushq	%rbp
	.cfi_def_cfa_offset 16
	.cfi_offset 6, -16
	movq	%rsp, %rbp
	.cfi_def_cfa_register 6
	subq	$32, %rsp
	movq	%fs:40, %rax
	movq	%rax, -8(%rbp)
	xorl	%eax, %eax
	movq	$0, -16(%rbp)
	leaq	.LC1(%rip), %rdi
	movl	$0, %eax
	call	printf@PLT
	leaq	-16(%rbp), %rax
	movq	%rax, %rsi
	leaq	.LC2(%rip), %rdi
	movl	$0, %eax
	call	__isoc99_scanf@PLT
	movl	%eax, -20(%rbp)
	cmpl	$-1, -20(%rbp)
	jne	.L8
	movq	stderr(%rip), %rax
	movq	%rax, %rcx
	movl	$14, %edx
	movl	$1, %esi
	leaq	.LC3(%rip), %rdi
	call	fwrite@PLT
	movl	$1, %edi
	call	exit@PLT
.L8:
	movq	-16(%rbp), %rax
	movq	-8(%rbp), %rdx
	xorq	%fs:40, %rdx
	je	.L10
	call	__stack_chk_fail@PLT
.L10:
	leave
	.cfi_def_cfa 7, 8
	ret
	.cfi_endproc
.LFE8:
	.size	read, .-read
	.section	.rodata
.LC4:
	.string	"%ld\n"
	.text
	.globl	main
	.type	main, @function
main:
.LFB9:
	.cfi_startproc
	pushq	%rbp
	.cfi_def_cfa_offset 16
	.cfi_offset 6, -16
	movq	%rsp, %rbp
	.cfi_def_cfa_register 6
	subq	$16, %rsp
	movl	$1024, %edi
	call	create_arena
	movq	%rax, -8(%rbp)
	movq	-8(%rbp), %rax
	movq	%rax, %rdi
	call	giria@PLT
	movq	%rax, %rsi
	leaq	.LC4(%rip), %rdi
	movl	$0, %eax
	call	printf@PLT
	movq	-8(%rbp), %rax
	movq	%rax, %rdi
	call	arena_free
	movl	$0, %eax
	leave
	.cfi_def_cfa 7, 8
	ret
	.cfi_endproc
.LFE9:
	.size	main, .-main
	.ident	"GCC: (Ubuntu 7.4.0-1ubuntu1~18.04.1) 7.4.0"
	.section	.note.GNU-stack,"",@progbits
